; Function Attrs: nounwind uwtable
define internal void @semlock_dealloc(ptr noundef %0) #0 {
  %2 = getelementptr i8, ptr %0, i64 8
  %.val = load ptr, ptr %2, align 8, !tbaa !3
  tail call void @PyObject_GC_UnTrack(ptr noundef %0) #11
  %3 = getelementptr inbounds nuw i8, ptr %0, i64 16
  %4 = load ptr, ptr %3, align 8, !tbaa !9
  %.not = icmp eq ptr %4, null
  br i1 %.not, label %7, label %5

5:                                                ; preds = %1
  %6 = tail call i32 @sem_close(ptr noundef nonnull %4) #11
  br label %7

7:                                                ; preds = %5, %1
  %8 = getelementptr inbounds nuw i8, ptr %0, i64 48
  %9 = load ptr, ptr %8, align 8, !tbaa !14
  tail call void @PyMem_Free(ptr noundef %9) #11
  %10 = getelementptr inbounds nuw i8, ptr %.val, i64 320
  %11 = load ptr, ptr %10, align 8, !tbaa !15
  tail call void %11(ptr noundef nonnull %0) #11
  %12 = load i32, ptr %.val, align 8, !tbaa !23
  %.not.i = icmp sgt i32 %12, -1
  br i1 %.not.i, label %13, label %Py_DECREF.exit

13:                                               ; preds = %7
  %14 = add nsw i32 %12, -1
  store i32 %14, ptr %.val, align 8, !tbaa !23
  %15 = icmp eq i32 %14, 0
  br i1 %15, label %16, label %Py_DECREF.exit

16:                                               ; preds = %13
  tail call void @_Py_Dealloc(ptr noundef nonnull %.val) #11
  br label %Py_DECREF.exit

Py_DECREF.exit:                                   ; preds = %7, %13, %16
  ret void
}